target datalayout = "e-m:e-p270:32:32-p271:32:32-p272:64:64-i64:64-i128:128-f80:128-n8:16:32:64-S128"
target triple = "x86_64-pc-linux-gnu"

%struct.tok_state = type { ptr, ptr, ptr, i32, ptr, ptr, ptr, ptr, i32, ptr, i32, i32, [100 x i32], i32, i32, ptr, ptr, i32, i32, i32, i32, i32, [200 x i8], [200 x i32], [200 x i32], ptr, [100 x i32], i32, i32, ptr, i32, ptr, ptr, ptr, ptr, ptr, ptr, ptr, ptr, i32, i32, ptr, i32, [150 x %struct._tokenizer_mode], i32, i32, i32, i32 }
%struct._tokenizer_mode = type { i32, i32, i32, i8, i32, i32, ptr, ptr, i32, i64, i64, i64, i64, ptr, i32, i32 }

; Function Attrs: nounwind uwtable
define internal i32 @tok_underflow_string(ptr noundef %0) #0 {
  %2 = alloca i32, align 4
  %3 = alloca ptr, align 8
  %4 = alloca ptr, align 8
  %5 = alloca i32, align 4
  store ptr %0, ptr %3, align 8, !tbaa !11
  call void @llvm.lifetime.start.p0(i64 8, ptr %4) #6
  %6 = load ptr, ptr %3, align 8, !tbaa !11
  %7 = getelementptr inbounds nuw %struct.tok_state, ptr %6, i32 0, i32 2
  %8 = load ptr, ptr %7, align 8, !tbaa !13
  %9 = call ptr @strchr(ptr noundef %8, i32 noundef 10) #7
  store ptr %9, ptr %4, align 8, !tbaa !4
  %10 = load ptr, ptr %4, align 8, !tbaa !4
  %11 = icmp ne ptr %10, null
  br i1 %11, label %12, label %15

12:                                               ; preds = %1
  %13 = load ptr, ptr %4, align 8, !tbaa !4
  %14 = getelementptr i8, ptr %13, i32 1
  store ptr %14, ptr %4, align 8, !tbaa !4
  br label %29

15:                                               ; preds = %1
  %16 = load ptr, ptr %3, align 8, !tbaa !11
  %17 = getelementptr inbounds nuw %struct.tok_state, ptr %16, i32 0, i32 2
  %18 = load ptr, ptr %17, align 8, !tbaa !13
  %19 = call ptr @strchr(ptr noundef %18, i32 noundef 0) #7
  store ptr %19, ptr %4, align 8, !tbaa !4
  %20 = load ptr, ptr %4, align 8, !tbaa !4
  %21 = load ptr, ptr %3, align 8, !tbaa !11
  %22 = getelementptr inbounds nuw %struct.tok_state, ptr %21, i32 0, i32 2
  %23 = load ptr, ptr %22, align 8, !tbaa !13
  %24 = icmp eq ptr %20, %23
  br i1 %24, label %25, label %28

25:                                               ; preds = %15
  %26 = load ptr, ptr %3, align 8, !tbaa !11
  %27 = getelementptr inbounds nuw %struct.tok_state, ptr %26, i32 0, i32 8
  store i32 11, ptr %27, align 8, !tbaa !28
  store i32 0, ptr %2, align 4
  store i32 1, ptr %5, align 4
  br label %55

28:                                               ; preds = %15
  br label %29

29:                                               ; preds = %28, %12
  %30 = load ptr, ptr %3, align 8, !tbaa !11
  %31 = getelementptr inbounds nuw %struct.tok_state, ptr %30, i32 0, i32 7
  %32 = load ptr, ptr %31, align 8, !tbaa !29
  %33 = icmp eq ptr %32, null
  br i1 %33, label %34, label %40

34:                                               ; preds = %29
  %35 = load ptr, ptr %3, align 8, !tbaa !11
  %36 = getelementptr inbounds nuw %struct.tok_state, ptr %35, i32 0, i32 1
  %37 = load ptr, ptr %36, align 8, !tbaa !17
  %38 = load ptr, ptr %3, align 8, !tbaa !11
  %39 = getelementptr inbounds nuw %struct.tok_state, ptr %38, i32 0, i32 0
  store ptr %37, ptr %39, align 8, !tbaa !18
  br label %40

40:                                               ; preds = %34, %29
  %41 = load ptr, ptr %3, align 8, !tbaa !11
  %42 = getelementptr inbounds nuw %struct.tok_state, ptr %41, i32 0, i32 1
  %43 = load ptr, ptr %42, align 8, !tbaa !17
  %44 = load ptr, ptr %3, align 8, !tbaa !11
  %45 = getelementptr inbounds nuw %struct.tok_state, ptr %44, i32 0, i32 31
  store ptr %43, ptr %45, align 8, !tbaa !30
  %46 = load ptr, ptr %3, align 8, !tbaa !11
  %47 = getelementptr inbounds nuw %struct.tok_state, ptr %46, i32 0, i32 17
  %48 = load i32, ptr %47, align 8, !tbaa !31
  %49 = add i32 %48, 1
  store i32 %49, ptr %47, align 8, !tbaa !31
  %50 = load ptr, ptr %3, align 8, !tbaa !11
  %51 = getelementptr inbounds nuw %struct.tok_state, ptr %50, i32 0, i32 20
  store i32 0, ptr %51, align 4, !tbaa !32
  %52 = load ptr, ptr %4, align 8, !tbaa !4
  %53 = load ptr, ptr %3, align 8, !tbaa !11
  %54 = getelementptr inbounds nuw %struct.tok_state, ptr %53, i32 0, i32 2
  store ptr %52, ptr %54, align 8, !tbaa !13
  store i32 1, ptr %2, align 4
  store i32 1, ptr %5, align 4
  br label %55

55:                                               ; preds = %40, %25
  call void @llvm.lifetime.end.p0(i64 8, ptr %4) #6
  %56 = load i32, ptr %2, align 4
  ret i32 %56
}