; Function Attrs: mustprogress nofree nounwind willreturn memory(read, argmem: readwrite, inaccessiblemem: none) uwtable
define internal range(i32 0, 2) i32 @tok_underflow_string(ptr noundef captures(none) %0) #3 {
  %2 = getelementptr inbounds nuw i8, ptr %0, i64 16
  %3 = load ptr, ptr %2, align 8, !tbaa !19
  %4 = tail call ptr @strchr(ptr noundef nonnull dereferenceable(1) %3, i32 noundef 10) #11
  %.not = icmp eq ptr %4, null
  br i1 %.not, label %7, label %5

5:                                                ; preds = %1
  %6 = getelementptr i8, ptr %4, i64 1
  br label %11

7:                                                ; preds = %1
  %strlen = tail call i64 @strlen(ptr noundef nonnull dereferenceable(1) %3)
  %strchr = getelementptr inbounds i8, ptr %3, i64 %strlen
  %8 = icmp eq i64 %strlen, 0
  br i1 %8, label %9, label %11

9:                                                ; preds = %7
  %10 = getelementptr inbounds nuw i8, ptr %0, i64 64
  store i32 11, ptr %10, align 8, !tbaa !24
  br label %23

11:                                               ; preds = %7, %5
  %.0 = phi ptr [ %6, %5 ], [ %strchr, %7 ]
  %12 = getelementptr inbounds nuw i8, ptr %0, i64 56
  %13 = load ptr, ptr %12, align 8, !tbaa !25
  %14 = icmp eq ptr %13, null
  %15 = getelementptr inbounds nuw i8, ptr %0, i64 8
  %16 = load ptr, ptr %15, align 8, !tbaa !20
  br i1 %14, label %17, label %._crit_edge

17:                                               ; preds = %11
  store ptr %16, ptr %0, align 8, !tbaa !21
  br label %._crit_edge

._crit_edge:                                      ; preds = %11, %17
  %18 = getelementptr inbounds nuw i8, ptr %0, i64 2768
  store ptr %16, ptr %18, align 8, !tbaa !26
  %19 = getelementptr inbounds nuw i8, ptr %0, i64 512
  %20 = load i32, ptr %19, align 8, !tbaa !27
  %21 = add i32 %20, 1
  store i32 %21, ptr %19, align 8, !tbaa !27
  %22 = getelementptr inbounds nuw i8, ptr %0, i64 524
  store i32 0, ptr %22, align 4, !tbaa !28
  store ptr %.0, ptr %2, align 8, !tbaa !19
  br label %23

23:                                               ; preds = %._crit_edge, %9
  %.016 = phi i32 [ 1, %._crit_edge ], [ 0, %9 ]
  ret i32 %.016
}